target datalayout = "e-m:e-p270:32:32-p271:32:32-p272:64:64-i64:64-i128:128-f80:128-n8:16:32:64-S128"
target triple = "x86_64-pc-linux-gnu"

%"class.datalog::bmc" = type { %"class.datalog::engine_base", ptr, ptr, %class.ref, %"class.datalog::rule_set", %class.obj_ref, %class.obj_ref.25, %class.ref_vector }
%"class.datalog::engine_base" = type { ptr, ptr, %"class.std::__cxx11::basic_string" }
%"class.std::__cxx11::basic_string" = type { %"struct.std::__cxx11::basic_string<char>::_Alloc_hider", i64, %union.anon }
%"struct.std::__cxx11::basic_string<char>::_Alloc_hider" = type { ptr }
%union.anon = type { i64, [8 x i8] }
%class.ref = type { ptr }
%"class.datalog::rule_set" = type { ptr, ptr, %class.ref_vector, %class.obj_map, %"class.datalog::rule_dependencies", %class.scoped_ptr, %class.obj_hashtable.9, %class.obj_map.15, %class.obj_map.15, %class.ref_vector.20, %class.ptr_vector }
%class.obj_map = type { %class.core_hashtable }
%class.core_hashtable = type <{ ptr, i32, i32, i32, [4 x i8] }>
%"class.datalog::rule_dependencies" = type { %class.obj_map.0, ptr, %class.ptr_vector.5, %class.expr_sparse_mark, %class.obj_hashtable.9 }
%class.obj_map.0 = type { %class.core_hashtable.1 }
%class.core_hashtable.1 = type <{ ptr, i32, i32, i32, [4 x i8] }>
%class.ptr_vector.5 = type { %class.vector.6 }
%class.vector.6 = type { ptr }
%class.expr_sparse_mark = type { %class.obj_hashtable }
%class.obj_hashtable = type { %class.core_hashtable.base.8, [4 x i8] }
%class.core_hashtable.base.8 = type <{ ptr, i32, i32, i32 }>
%class.scoped_ptr = type { ptr }
%class.obj_hashtable.9 = type { %class.core_hashtable.base.13, [4 x i8] }
%class.core_hashtable.base.13 = type <{ ptr, i32, i32, i32 }>
%class.obj_map.15 = type { %class.core_hashtable.16 }
%class.core_hashtable.16 = type <{ ptr, i32, i32, i32, [4 x i8] }>
%class.ref_vector.20 = type { %class.ref_vector_core.21 }
%class.ref_vector_core.21 = type { %class.ref_manager_wrapper.22, %class.ptr_vector.23 }
%class.ref_manager_wrapper.22 = type { ptr }
%class.ptr_vector.23 = type { %class.vector.24 }
%class.vector.24 = type { ptr }
%class.ptr_vector = type { %class.vector }
%class.vector = type { ptr }
%class.obj_ref = type { ptr, ptr }
%class.obj_ref.25 = type { ptr, ptr }
%class.ref_vector = type { %class.ref_vector_core }
%class.ref_vector_core = type { %class.ref_manager_wrapper, %class.ptr_vector }
%class.ref_manager_wrapper = type { ptr }
%"class.datalog::bmc::nonlinear" = type { ptr, ptr }

; Function Attrs: mustprogress nounwind uwtable
define linkonce_odr hidden void @_ZN7datalog3bmc9nonlinearC2ERS0_(ptr noundef nonnull align 8 dereferenceable(16) %0, ptr noundef nonnull align 8 dereferenceable(368) %1) unnamed_addr #5 comdat align 2 {
  %3 = alloca ptr, align 8
  %4 = alloca ptr, align 8
  store ptr %0, ptr %3, align 8, !tbaa !272
  store ptr %1, ptr %4, align 8, !tbaa !3
  %5 = load ptr, ptr %3, align 8
  %6 = getelementptr inbounds nuw %"class.datalog::bmc::nonlinear", ptr %5, i32 0, i32 0
  %7 = load ptr, ptr %4, align 8, !tbaa !3
  store ptr %7, ptr %6, align 8, !tbaa !3
  %8 = getelementptr inbounds nuw %"class.datalog::bmc::nonlinear", ptr %5, i32 0, i32 1
  %9 = load ptr, ptr %4, align 8, !tbaa !3
  %10 = getelementptr inbounds nuw %"class.datalog::bmc", ptr %9, i32 0, i32 2
  %11 = load ptr, ptr %10, align 8, !tbaa !14
  store ptr %11, ptr %8, align 8, !tbaa !12
  ret void
}

; Function Attrs: mustprogress uwtable
define hidden void @_ZN7datalog3bmc7compileERKNS_8rule_setER10ref_vectorI4expr11ast_managerEj(ptr noundef nonnull align 8 dereferenceable(368) %0, ptr noundef nonnull align 8 dereferenceable(248) %1, ptr noundef nonnull align 8 dereferenceable(16) %2, i32 noundef %3) #4 align 2 {
  %5 = alloca ptr, align 8
  %6 = alloca ptr, align 8
  %7 = alloca ptr, align 8
  %8 = alloca i32, align 4
  %9 = alloca %"class.datalog::bmc::nonlinear", align 8
  store ptr %0, ptr %5, align 8, !tbaa !3
  store ptr %1, ptr %6, align 8, !tbaa !236
  store ptr %2, ptr %7, align 8, !tbaa !297
  store i32 %3, ptr %8, align 4, !tbaa !254
  %10 = load ptr, ptr %5, align 8
  call void @llvm.lifetime.start.p0(i64 16, ptr %9) #3
  call void @_ZN7datalog3bmc9nonlinearC2ERS0_(ptr noundef nonnull align 8 dereferenceable(16) %9, ptr noundef nonnull align 8 dereferenceable(368) %10)
  %11 = load ptr, ptr %6, align 8, !tbaa !236
  %12 = load ptr, ptr %7, align 8, !tbaa !297
  %13 = load i32, ptr %8, align 4, !tbaa !254
  call void @_ZN7datalog3bmc9nonlinear7compileERKNS_8rule_setER10ref_vectorI4expr11ast_managerEj(ptr noundef nonnull align 8 dereferenceable(16) %9, ptr noundef nonnull align 8 dereferenceable(248) %11, ptr noundef nonnull align 8 dereferenceable(16) %12, i32 noundef %13)
  call void @llvm.lifetime.end.p0(i64 16, ptr %9) #3
  ret void
}