; Function Attrs: mustprogress uwtable
define hidden void @_ZN7datalog3bmc7compileERKNS_8rule_setER10ref_vectorI4expr11ast_managerEj(ptr noundef nonnull align 8 dereferenceable(368) %0, ptr noundef nonnull align 8 dereferenceable(248) %1, ptr noundef nonnull align 8 dereferenceable(16) %2, i32 noundef %3) local_unnamed_addr #3 align 2 {
  %5 = alloca %"class.datalog::bmc::nonlinear", align 8
  call void @llvm.lifetime.start.p0(i64 16, ptr nonnull %5) #23
  store ptr %0, ptr %5, align 8, !tbaa !251
  %6 = getelementptr inbounds nuw i8, ptr %5, i64 8
  %7 = getelementptr inbounds nuw i8, ptr %0, i64 56
  %8 = load ptr, ptr %7, align 8, !tbaa !217
  store ptr %8, ptr %6, align 8, !tbaa !204
  call void @_ZN7datalog3bmc9nonlinear7compileERKNS_8rule_setER10ref_vectorI4expr11ast_managerEj(ptr noundef nonnull align 8 dereferenceable(16) %5, ptr noundef nonnull align 8 dereferenceable(248) %1, ptr noundef nonnull align 8 dereferenceable(16) %2, i32 noundef %3)
  call void @llvm.lifetime.end.p0(i64 16, ptr nonnull %5) #23
  ret void
}